; Function Attrs: null_pointer_is_valid sspstrong uwtable
define hidden void @dissect_smc_movemedium(ptr noundef %0, ptr readnone captures(none) %1, ptr noundef %2, i32 noundef %3, i1 noundef zeroext %4, i1 noundef zeroext %5, i32 %6, ptr readnone captures(none) %7) #0 {
  %.not = icmp ne ptr %2, null
  %9 = and i1 %4, %5
  %brmerge19.not = and i1 %.not, %9
  br i1 %brmerge19.not, label %10, label %28

10:                                               ; preds = %8
  %11 = load i32, ptr @hf_scsi_smc_mta, align 4
  %12 = add i32 %3, 1
  %13 = tail call ptr @proto_tree_add_item(ptr noundef nonnull %2, i32 noundef %11, ptr noundef %0, i32 noundef %12, i32 noundef 2, i32 noundef 0)
  %14 = load i32, ptr @hf_scsi_smc_sa, align 4
  %15 = add i32 %3, 3
  %16 = tail call ptr @proto_tree_add_item(ptr noundef nonnull %2, i32 noundef %14, ptr noundef %0, i32 noundef %15, i32 noundef 2, i32 noundef 0)
  %17 = load i32, ptr @hf_scsi_smc_da, align 4
  %18 = add i32 %3, 5
  %19 = tail call ptr @proto_tree_add_item(ptr noundef nonnull %2, i32 noundef %17, ptr noundef %0, i32 noundef %18, i32 noundef 2, i32 noundef 0)
  %20 = add i32 %3, 9
  %21 = load i32, ptr @hf_scsi_smc_range_flags, align 4
  %22 = load i32, ptr @ett_scsi_move, align 4
  %23 = tail call ptr @proto_tree_add_bitmask(ptr noundef nonnull %2, ptr noundef %0, i32 noundef %20, i32 noundef %21, i32 noundef %22, ptr noundef nonnull @dissect_smc_movemedium.move_fields, i32 noundef 0)
  %24 = add i32 %3, 10
  %25 = load i32, ptr @hf_scsi_control, align 4
  %26 = load i32, ptr @ett_scsi_control, align 4
  %27 = tail call ptr @proto_tree_add_bitmask(ptr noundef nonnull %2, ptr noundef %0, i32 noundef %24, i32 noundef %25, i32 noundef %26, ptr noundef nonnull @cdb_control_fields, i32 noundef 0)
  br label %28

28:                                               ; preds = %8, %10
  ret void
}